; Function Attrs: nounwind uwtable
define hidden void @nghttp2_map_free(ptr noundef readonly %0) local_unnamed_addr #1 {
  %.not = icmp eq ptr %0, null
  br i1 %.not, label %6, label %2

2:                                                ; preds = %1
  %3 = getelementptr inbounds nuw i8, ptr %0, i64 8
  %4 = load ptr, ptr %3, align 8, !tbaa !3
  %5 = load ptr, ptr %0, align 8, !tbaa !10
  tail call void @nghttp2_mem_free(ptr noundef %4, ptr noundef %5) #12
  br label %6

6:                                                ; preds = %1, %2
  ret void
}